target datalayout = "e-m:e-p270:32:32-p271:32:32-p272:64:64-i64:64-i128:128-f80:128-n8:16:32:64-S128"
target triple = "x86_64-pc-linux-gnu"

%struct._asn1_ctx_t = type { i32, i32, i8, ptr, ptr, ptr, ptr, ptr, %struct.anon, %struct.anon.2, %struct.anon.3, ptr }
%struct.anon = type { i32, i8, i8, i8, ptr, ptr, i32, i32, ptr, ptr, ptr, %union.anon }
%union.anon = type { %struct.anon.0 }
%struct.anon.0 = type { ptr }
%struct.anon.2 = type { ptr, ptr, ptr }
%struct.anon.3 = type { i32, i8, ptr, i32, i32, ptr, ptr, ptr, %union.anon.4 }
%union.anon.4 = type { %struct.anon.5 }
%struct.anon.5 = type { ptr }
%struct.mms_actx_private_data_t = type { i32, i32, i32, i32, i32, i16, ptr, i32, i32, i32, ptr, ptr, i32 }
%struct._proto_node = type { ptr, ptr, ptr, ptr, ptr, ptr, ptr }

@ett_mms_Confirmed_ResponsePDU = internal global i32 0, align 4

; Function Attrs: null_pointer_is_valid sspstrong uwtable
define internal i32 @dissect_mms_Confirmed_ResponsePDU(i1 noundef zeroext %0, ptr noundef %1, i32 noundef %2, ptr noundef %3, ptr noundef %4, i32 noundef %5) #0 {
  %7 = alloca i8, align 1
  %8 = alloca ptr, align 8
  %9 = alloca i32, align 4
  %10 = alloca ptr, align 8
  %11 = alloca ptr, align 8
  %12 = alloca i32, align 4
  %13 = alloca ptr, align 8
  %14 = zext i1 %0 to i8
  store i8 %14, ptr %7, align 1
  store ptr %1, ptr %8, align 8
  store i32 %2, ptr %9, align 4
  store ptr %3, ptr %10, align 8
  store ptr %4, ptr %11, align 8
  store i32 %5, ptr %12, align 4
  %15 = load i8, ptr %7, align 1, !range !6, !noundef !7
  %16 = trunc i8 %15 to i1
  %17 = load ptr, ptr %10, align 8
  %18 = load ptr, ptr %11, align 8
  %19 = load ptr, ptr %8, align 8
  %20 = load i32, ptr %9, align 4
  %21 = load i32, ptr %12, align 4
  %22 = load i32, ptr @ett_mms_Confirmed_ResponsePDU, align 4
  %23 = call i32 @dissect_ber_sequence(i1 noundef zeroext %16, ptr noundef %17, ptr noundef %18, ptr noundef %19, i32 noundef %20, ptr noundef @Confirmed_ResponsePDU_sequence, i32 noundef %21, i32 noundef %22)
  store i32 %23, ptr %9, align 4
  call void @llvm.lifetime.start.p0(i64 8, ptr %13) #8
  %24 = load ptr, ptr %10, align 8
  %25 = getelementptr inbounds nuw %struct._asn1_ctx_t, ptr %24, i32 0, i32 7
  %26 = load ptr, ptr %25, align 8
  store ptr %26, ptr %13, align 8
  %27 = load ptr, ptr %11, align 8
  %28 = icmp ne ptr %27, null
  br i1 %28, label %29, label %38

29:                                               ; preds = %6
  %30 = load ptr, ptr %13, align 8
  %31 = icmp ne ptr %30, null
  br i1 %31, label %32, label %38

32:                                               ; preds = %29
  %33 = load ptr, ptr %11, align 8
  %34 = getelementptr inbounds nuw %struct._proto_node, ptr %33, i32 0, i32 1
  %35 = load ptr, ptr %34, align 8
  %36 = load ptr, ptr %13, align 8
  %37 = getelementptr inbounds nuw %struct.mms_actx_private_data_t, ptr %36, i32 0, i32 6
  store ptr %35, ptr %37, align 8
  br label %38

38:                                               ; preds = %32, %29, %6
  %39 = load i32, ptr %9, align 4
  call void @llvm.lifetime.end.p0(i64 8, ptr %13) #8
  ret i32 %39
}