; Function Attrs: null_pointer_is_valid sspstrong uwtable
define internal i32 @dissect_mms_Confirmed_ResponsePDU(i1 noundef zeroext %0, ptr noundef %1, i32 noundef %2, ptr noundef %3, ptr noundef %4, i32 noundef %5) #0 {
  %7 = load i32, ptr @ett_mms_Confirmed_ResponsePDU, align 4
  %8 = tail call i32 @dissect_ber_sequence(i1 noundef zeroext %0, ptr noundef %3, ptr noundef %4, ptr noundef %1, i32 noundef %2, ptr noundef nonnull @Confirmed_ResponsePDU_sequence, i32 noundef %5, i32 noundef %7)
  %9 = getelementptr inbounds nuw i8, ptr %3, i64 48
  %10 = load ptr, ptr %9, align 8
  %11 = icmp ne ptr %4, null
  %12 = icmp ne ptr %10, null
  %or.cond = select i1 %11, i1 %12, i1 false
  br i1 %or.cond, label %13, label %17

13:                                               ; preds = %6
  %14 = getelementptr inbounds nuw i8, ptr %4, i64 8
  %15 = load ptr, ptr %14, align 8
  %16 = getelementptr inbounds nuw i8, ptr %10, i64 24
  store ptr %15, ptr %16, align 8
  br label %17

17:                                               ; preds = %13, %6
  ret i32 %8
}